target datalayout = "e-m:e-p270:32:32-p271:32:32-p272:64:64-i64:64-i128:128-f80:128-n8:16:32:64-S128"
target triple = "x86_64-pc-linux-gnu"

%struct.jit_State = type { %struct.GCtrace, ptr, ptr, ptr, ptr, ptr, ptr, i32, i32, i32, i8, i8, %struct.IRType1, i8, %struct.FoldState, ptr, i32, i32, i32, i32, i32, i32, i32, [1 x i32], [5 x %union.TValue], [3 x %union.TValue], ptr, i32, i32, i32, i32, ptr, ptr, i32, i32, i8, ptr, i32, i32, i16, [101 x i16], [258 x i32], [15 x i32], [16 x ptr], [64 x %struct.HotPenalty], i32, [16 x %struct.BPropEntry], i32, %struct.ScEvEntry, ptr, i32, i32, i32, ptr, i32, i32, ptr, ptr, ptr, i64, i64, %union.TValue, ptr, i32, i32 }
%struct.GCtrace = type { %struct.GCRef, i8, i8, i16, i32, i32, %struct.GCRef, ptr, i32, i32, ptr, ptr, %struct.GCRef, %struct.MRef, i32, i32, ptr, i32, i16, i16, i16, i16, i16, i16, i16, i8, i8, i8, i8 }
%struct.GCRef = type { i64 }
%struct.MRef = type { i64 }
%struct.IRType1 = type { i8 }
%struct.FoldState = type { %union.IRIns, [2 x %union.IRIns], [2 x %union.IRIns] }
%union.IRIns = type { %struct.GCRef }
%struct.HotPenalty = type { %struct.MRef, i16, i16 }
%struct.BPropEntry = type { i16, i16, i32 }
%struct.ScEvEntry = type { %struct.MRef, i16, i16, i16, i16, %struct.IRType1, i8 }
%union.TValue = type { i64 }
%struct.lua_State = type { %struct.GCRef, i8, i8, i8, i8, %struct.MRef, %struct.GCRef, ptr, ptr, %struct.MRef, %struct.MRef, %struct.GCRef, %struct.GCRef, ptr, i32 }
%struct.GG_State = type { %struct.lua_State, %struct.global_State, %struct.jit_State, [64 x i16], [243 x ptr], [57 x i32] }
%struct.global_State = type { ptr, ptr, %struct.GCState, %struct.GCstr, i8, i8, i8, i8, %struct.StrInternState, i32, %struct.GCRef, %struct.SBuf, %union.TValue, %union.TValue, %struct.Node, %union.TValue, %struct.GCupval, i32, i32, ptr, ptr, ptr, i32, i32, %struct.GCRef, %struct.MRef, %struct.MRef, %struct.PRNGState, [39 x %struct.GCRef] }
%struct.GCState = type { i64, i64, i8, i8, i8, i8, i32, %struct.GCRef, %struct.MRef, %struct.GCRef, %struct.GCRef, %struct.GCRef, %struct.GCRef, i64, i64, i32, i32, %struct.MRef }
%struct.GCstr = type { %struct.GCRef, i8, i8, i8, i8, i32, i32, i32 }
%struct.StrInternState = type { ptr, i32, i32, i32, i8, i8, i8, i8, i64 }
%struct.SBuf = type { ptr, ptr, ptr, %struct.MRef }
%struct.Node = type { %union.TValue, %union.TValue, %struct.MRef }
%struct.GCupval = type { %struct.GCRef, i8, i8, i8, i8, %union.anon, %struct.MRef, i32 }
%union.anon = type { %struct.anon.3 }
%struct.anon.3 = type { %struct.GCRef, %struct.GCRef }
%struct.PRNGState = type { [4 x i64] }

@.str = private unnamed_addr constant [6 x i8] c"flush\00", align 1
@.str.1 = private unnamed_addr constant [24 x i8] c"store to dead GC object\00", align 1

; Function Attrs: alwaysinline nounwind uwtable
define internal void @checklivetv(ptr noundef %0, ptr noundef %1, ptr noundef %2) #1 {
  %4 = alloca ptr, align 8
  %5 = alloca ptr, align 8
  %6 = alloca ptr, align 8
  store ptr %0, ptr %4, align 8, !tbaa !35
  store ptr %1, ptr %5, align 8, !tbaa !34
  store ptr %2, ptr %6, align 8, !tbaa !42
  ret void
}

; Function Attrs: alwaysinline nounwind uwtable
define internal void @setgcVraw(ptr noundef %0, ptr noundef %1, i32 noundef %2) #1 {
  %4 = alloca ptr, align 8
  %5 = alloca ptr, align 8
  %6 = alloca i32, align 4
  store ptr %0, ptr %4, align 8, !tbaa !34
  store ptr %1, ptr %5, align 8, !tbaa !147
  store i32 %2, ptr %6, align 4, !tbaa !9
  %7 = load ptr, ptr %5, align 8, !tbaa !147
  %8 = ptrtoint ptr %7 to i64
  %9 = load i32, ptr %6, align 4, !tbaa !9
  %10 = zext i32 %9 to i64
  %11 = shl i64 %10, 47
  %12 = or i64 %8, %11
  %13 = load ptr, ptr %4, align 8, !tbaa !34
  %14 = getelementptr inbounds nuw %struct.GCRef, ptr %13, i32 0, i32 0
  store i64 %12, ptr %14, align 8, !tbaa !11
  ret void
}

; Function Attrs: alwaysinline nounwind uwtable
define internal void @setgcV(ptr noundef %0, ptr noundef %1, ptr noundef %2, i32 noundef %3) #1 {
  %5 = alloca ptr, align 8
  %6 = alloca ptr, align 8
  %7 = alloca ptr, align 8
  %8 = alloca i32, align 4
  store ptr %0, ptr %5, align 8, !tbaa !35
  store ptr %1, ptr %6, align 8, !tbaa !34
  store ptr %2, ptr %7, align 8, !tbaa !147
  store i32 %3, ptr %8, align 4, !tbaa !9
  %9 = load ptr, ptr %6, align 8, !tbaa !34
  %10 = load ptr, ptr %7, align 8, !tbaa !147
  %11 = load i32, ptr %8, align 4, !tbaa !9
  call void @setgcVraw(ptr noundef %9, ptr noundef %10, i32 noundef %11)
  %12 = load ptr, ptr %5, align 8, !tbaa !35
  %13 = load ptr, ptr %6, align 8, !tbaa !34
  call void @checklivetv(ptr noundef %12, ptr noundef %13, ptr noundef @.str.1)
  ret void
}

; Function Attrs: alwaysinline nounwind uwtable
define internal void @setstrV(ptr noundef %0, ptr noundef %1, ptr noundef %2) #1 {
  %4 = alloca ptr, align 8
  %5 = alloca ptr, align 8
  %6 = alloca ptr, align 8
  store ptr %0, ptr %4, align 8, !tbaa !35
  store ptr %1, ptr %5, align 8, !tbaa !34
  store ptr %2, ptr %6, align 8, !tbaa !86
  %7 = load ptr, ptr %4, align 8, !tbaa !35
  %8 = load ptr, ptr %5, align 8, !tbaa !34
  %9 = load ptr, ptr %6, align 8, !tbaa !86
  call void @setgcV(ptr noundef %7, ptr noundef %8, ptr noundef %9, i32 noundef -5)
  ret void
}

; Function Attrs: nounwind uwtable
define hidden i32 @lj_trace_flushall(ptr noundef %0) #3 {
  %2 = alloca i32, align 4
  %3 = alloca ptr, align 8
  %4 = alloca ptr, align 8
  %5 = alloca i64, align 8
  %6 = alloca i32, align 4
  %7 = alloca ptr, align 8
  %8 = alloca i64, align 8
  store ptr %0, ptr %3, align 8, !tbaa !35
  call void @llvm.lifetime.start.p0(i64 8, ptr %4) #11
  %9 = load ptr, ptr %3, align 8, !tbaa !35
  %10 = getelementptr inbounds nuw %struct.lua_State, ptr %9, i32 0, i32 5
  %11 = getelementptr inbounds nuw %struct.MRef, ptr %10, i32 0, i32 0
  %12 = load i64, ptr %11, align 8, !tbaa !80
  %13 = inttoptr i64 %12 to ptr
  %14 = getelementptr inbounds i8, ptr %13, i64 -96
  %15 = getelementptr inbounds nuw %struct.GG_State, ptr %14, i32 0, i32 2
  store ptr %15, ptr %4, align 8, !tbaa !4
  call void @llvm.lifetime.start.p0(i64 8, ptr %5) #11
  %16 = load ptr, ptr %4, align 8, !tbaa !4
  %17 = getelementptr inbounds i8, ptr %16, i64 -832
  %18 = getelementptr inbounds nuw %struct.GG_State, ptr %17, i32 0, i32 1
  %19 = getelementptr inbounds nuw %struct.global_State, ptr %18, i32 0, i32 5
  %20 = load i8, ptr %19, align 1, !tbaa !81
  %21 = zext i8 %20 to i32
  %22 = and i32 %21, 64
  %23 = icmp ne i32 %22, 0
  br i1 %23, label %24, label %25

24:                                               ; preds = %1
  store i32 1, ptr %2, align 4
  store i32 1, ptr %6, align 4
  br label %109

25:                                               ; preds = %1
  %26 = load ptr, ptr %4, align 8, !tbaa !4
  %27 = getelementptr inbounds nuw %struct.jit_State, ptr %26, i32 0, i32 38
  %28 = load i32, ptr %27, align 4, !tbaa !71
  %29 = zext i32 %28 to i64
  %30 = sub nsw i64 %29, 1
  store i64 %30, ptr %5, align 8, !tbaa !37
  br label %31

31:                                               ; preds = %66, %25
  %32 = load i64, ptr %5, align 8, !tbaa !37
  %33 = icmp sgt i64 %32, 0
  br i1 %33, label %34, label %69

34:                                               ; preds = %31
  call void @llvm.lifetime.start.p0(i64 8, ptr %7) #11
  %35 = load ptr, ptr %4, align 8, !tbaa !4
  %36 = getelementptr inbounds nuw %struct.jit_State, ptr %35, i32 0, i32 36
  %37 = load ptr, ptr %36, align 8, !tbaa !50
  %38 = load i64, ptr %5, align 8, !tbaa !37
  %39 = getelementptr inbounds %struct.GCRef, ptr %37, i64 %38
  %40 = getelementptr inbounds nuw %struct.GCRef, ptr %39, i32 0, i32 0
  %41 = load i64, ptr %40, align 8, !tbaa !51
  %42 = inttoptr i64 %41 to ptr
  store ptr %42, ptr %7, align 8, !tbaa !36
  %43 = load ptr, ptr %7, align 8, !tbaa !36
  %44 = icmp ne ptr %43, null
  br i1 %44, label %45, label %65

45:                                               ; preds = %34
  %46 = load ptr, ptr %7, align 8, !tbaa !36
  %47 = getelementptr inbounds nuw %struct.GCtrace, ptr %46, i32 0, i32 22
  %48 = load i16, ptr %47, align 4, !tbaa !72
  %49 = zext i16 %48 to i32
  %50 = icmp eq i32 %49, 0
  br i1 %50, label %51, label %54

51:                                               ; preds = %45
  %52 = load ptr, ptr %4, align 8, !tbaa !4
  %53 = load ptr, ptr %7, align 8, !tbaa !36
  call void @trace_flushroot(ptr noundef %52, ptr noundef %53)
  br label %54

54:                                               ; preds = %51, %45
  %55 = load ptr, ptr %7, align 8, !tbaa !36
  %56 = getelementptr inbounds nuw %struct.GCtrace, ptr %55, i32 0, i32 21
  store i16 0, ptr %56, align 2, !tbaa !82
  %57 = load ptr, ptr %7, align 8, !tbaa !36
  %58 = getelementptr inbounds nuw %struct.GCtrace, ptr %57, i32 0, i32 20
  store i16 0, ptr %58, align 8, !tbaa !45
  %59 = load ptr, ptr %4, align 8, !tbaa !4
  %60 = getelementptr inbounds nuw %struct.jit_State, ptr %59, i32 0, i32 36
  %61 = load ptr, ptr %60, align 8, !tbaa !50
  %62 = load i64, ptr %5, align 8, !tbaa !37
  %63 = getelementptr inbounds %struct.GCRef, ptr %61, i64 %62
  %64 = getelementptr inbounds nuw %struct.GCRef, ptr %63, i32 0, i32 0
  store i64 0, ptr %64, align 8, !tbaa !51
  br label %65

65:                                               ; preds = %54, %34
  call void @llvm.lifetime.end.p0(i64 8, ptr %7) #11
  br label %66

66:                                               ; preds = %65
  %67 = load i64, ptr %5, align 8, !tbaa !37
  %68 = add nsw i64 %67, -1
  store i64 %68, ptr %5, align 8, !tbaa !37
  br label %31, !llvm.loop !83

69:                                               ; preds = %31
  %70 = load ptr, ptr %4, align 8, !tbaa !4
  %71 = getelementptr inbounds nuw %struct.jit_State, ptr %70, i32 0, i32 0
  %72 = getelementptr inbounds nuw %struct.GCtrace, ptr %71, i32 0, i32 20
  store i16 0, ptr %72, align 8, !tbaa !84
  %73 = load ptr, ptr %4, align 8, !tbaa !4
  %74 = getelementptr inbounds nuw %struct.jit_State, ptr %73, i32 0, i32 37
  store i32 0, ptr %74, align 8, !tbaa !49
  %75 = load ptr, ptr %4, align 8, !tbaa !4
  %76 = getelementptr inbounds nuw %struct.jit_State, ptr %75, i32 0, i32 44
  %77 = getelementptr inbounds [64 x %struct.HotPenalty], ptr %76, i64 0, i64 0
  call void @llvm.memset.p0.i64(ptr align 8 %77, i8 0, i64 1024, i1 false)
  %78 = load ptr, ptr %4, align 8, !tbaa !4
  call void @lj_mcode_free(ptr noundef %78)
  %79 = load ptr, ptr %4, align 8, !tbaa !4
  %80 = getelementptr inbounds nuw %struct.jit_State, ptr %79, i32 0, i32 43
  %81 = getelementptr inbounds [16 x ptr], ptr %80, i64 0, i64 0
  call void @llvm.memset.p0.i64(ptr align 8 %81, i8 0, i64 128, i1 false)
  %82 = load ptr, ptr %3, align 8, !tbaa !35
  %83 = getelementptr inbounds nuw %struct.lua_State, ptr %82, i32 0, i32 5
  %84 = getelementptr inbounds nuw %struct.MRef, ptr %83, i32 0, i32 0
  %85 = load i64, ptr %84, align 8, !tbaa !80
  %86 = inttoptr i64 %85 to ptr
  %87 = getelementptr inbounds nuw %struct.global_State, ptr %86, i32 0, i32 7
  %88 = load i8, ptr %87, align 1, !tbaa !85
  %89 = zext i8 %88 to i32
  %90 = and i32 %89, 2
  %91 = icmp ne i32 %90, 0
  br i1 %91, label %92, label %108

92:                                               ; preds = %69
  call void @llvm.lifetime.start.p0(i64 8, ptr %8) #11
  %93 = load ptr, ptr %3, align 8, !tbaa !35
  %94 = call i64 @lj_vmevent_prepare(ptr noundef %93, i32 noundef -1765235911)
  store i64 %94, ptr %8, align 8, !tbaa !37
  %95 = load i64, ptr %8, align 8, !tbaa !37
  %96 = icmp ne i64 %95, 0
  br i1 %96, label %97, label %107

97:                                               ; preds = %92
  %98 = load ptr, ptr %3, align 8, !tbaa !35
  %99 = load ptr, ptr %3, align 8, !tbaa !35
  %100 = getelementptr inbounds nuw %struct.lua_State, ptr %99, i32 0, i32 8
  %101 = load ptr, ptr %100, align 8, !tbaa !31
  %102 = getelementptr inbounds nuw %union.TValue, ptr %101, i32 1
  store ptr %102, ptr %100, align 8, !tbaa !31
  %103 = load ptr, ptr %3, align 8, !tbaa !35
  %104 = call ptr @lj_str_new(ptr noundef %103, ptr noundef @.str, i64 noundef 5)
  call void @setstrV(ptr noundef %98, ptr noundef %101, ptr noundef %104)
  %105 = load ptr, ptr %3, align 8, !tbaa !35
  %106 = load i64, ptr %8, align 8, !tbaa !37
  call void @lj_vmevent_call(ptr noundef %105, i64 noundef %106)
  br label %107

107:                                              ; preds = %97, %92
  call void @llvm.lifetime.end.p0(i64 8, ptr %8) #11
  br label %108

108:                                              ; preds = %107, %69
  store i32 0, ptr %2, align 4
  store i32 1, ptr %6, align 4
  br label %109

109:                                              ; preds = %108, %24
  call void @llvm.lifetime.end.p0(i64 8, ptr %5) #11
  call void @llvm.lifetime.end.p0(i64 8, ptr %4) #11
  %110 = load i32, ptr %2, align 4
  ret i32 %110
}