; Function Attrs: nounwind uwtable
define hidden range(i32 0, 2) i32 @lj_trace_flushall(ptr noundef %0) local_unnamed_addr #2 {
  %2 = getelementptr inbounds nuw i8, ptr %0, i64 16
  %3 = load i64, ptr %2, align 8, !tbaa !70
  %4 = inttoptr i64 %3 to ptr
  %5 = getelementptr inbounds nuw i8, ptr %4, i64 736
  %6 = getelementptr inbounds nuw i8, ptr %4, i64 145
  %7 = load i8, ptr %6, align 1, !tbaa !71
  %8 = and i8 %7, 64
  %.not = icmp eq i8 %8, 0
  br i1 %.not, label %9, label %53

9:                                                ; preds = %1
  %10 = getelementptr inbounds nuw i8, ptr %4, i64 1132
  %11 = load i32, ptr %10, align 4, !tbaa !59
  %12 = icmp ugt i32 %11, 1
  br i1 %12, label %.lr.ph, label %._crit_edge

.lr.ph:                                           ; preds = %9
  %13 = zext i32 %11 to i64
  %14 = getelementptr inbounds nuw i8, ptr %4, i64 1120
  %.pre = load ptr, ptr %14, align 8, !tbaa !40
  br label %15

15:                                               ; preds = %.lr.ph, %31
  %16 = phi ptr [ %.pre, %.lr.ph ], [ %32, %31 ]
  %17 = phi ptr [ %.pre, %.lr.ph ], [ %33, %31 ]
  %.02835.in = phi i64 [ %13, %.lr.ph ], [ %.02835, %31 ]
  %.02835 = add nsw i64 %.02835.in, -1
  %18 = getelementptr inbounds nuw %struct.GCRef, ptr %17, i64 %.02835
  %19 = load i64, ptr %18, align 8, !tbaa !41
  %20 = inttoptr i64 %19 to ptr
  %.not33 = icmp eq i64 %19, 0
  br i1 %.not33, label %31, label %21

21:                                               ; preds = %15
  %22 = getelementptr inbounds nuw i8, ptr %20, i64 108
  %23 = load i16, ptr %22, align 4, !tbaa !60
  %24 = icmp eq i16 %23, 0
  br i1 %24, label %25, label %26

25:                                               ; preds = %21
  tail call fastcc void @trace_flushroot(ptr noundef nonnull %5, ptr noundef nonnull %20)
  %.pre36 = load ptr, ptr %14, align 8, !tbaa !40
  br label %26

26:                                               ; preds = %25, %21
  %27 = phi ptr [ %.pre36, %25 ], [ %16, %21 ]
  %28 = getelementptr inbounds nuw i8, ptr %20, i64 106
  store i16 0, ptr %28, align 2, !tbaa !72
  %29 = getelementptr inbounds nuw i8, ptr %20, i64 104
  store i16 0, ptr %29, align 8, !tbaa !37
  %30 = getelementptr inbounds nuw %struct.GCRef, ptr %27, i64 %.02835
  store i64 0, ptr %30, align 8, !tbaa !41
  br label %31

31:                                               ; preds = %26, %15
  %32 = phi ptr [ %27, %26 ], [ %16, %15 ]
  %33 = phi ptr [ %27, %26 ], [ %17, %15 ]
  %34 = icmp samesign ugt i64 %.02835.in, 2
  br i1 %34, label %15, label %._crit_edge, !llvm.loop !73

._crit_edge:                                      ; preds = %31, %9
  %35 = getelementptr inbounds nuw i8, ptr %4, i64 840
  store i16 0, ptr %35, align 8, !tbaa !74
  %36 = getelementptr inbounds nuw i8, ptr %4, i64 1128
  store i32 0, ptr %36, align 8, !tbaa !39
  %37 = getelementptr inbounds nuw i8, ptr %4, i64 2560
  tail call void @llvm.memset.p0.i64(ptr noundef nonnull align 8 dereferenceable(1024) %37, i8 0, i64 1024, i1 false)
  tail call void @lj_mcode_free(ptr noundef nonnull %5) #14
  %38 = getelementptr inbounds nuw i8, ptr %4, i64 2432
  tail call void @llvm.memset.p0.i64(ptr noundef nonnull align 8 dereferenceable(128) %38, i8 0, i64 128, i1 false)
  %39 = load i64, ptr %2, align 8, !tbaa !70
  %40 = inttoptr i64 %39 to ptr
  %41 = getelementptr inbounds nuw i8, ptr %40, i64 147
  %42 = load i8, ptr %41, align 1, !tbaa !75
  %43 = and i8 %42, 2
  %.not31 = icmp eq i8 %43, 0
  br i1 %.not31, label %53, label %44

44:                                               ; preds = %._crit_edge
  %45 = tail call i64 @lj_vmevent_prepare(ptr noundef nonnull %0, i32 noundef -1765235911) #14
  %.not32 = icmp eq i64 %45, 0
  br i1 %.not32, label %53, label %46

46:                                               ; preds = %44
  %47 = getelementptr inbounds nuw i8, ptr %0, i64 40
  %48 = load ptr, ptr %47, align 8, !tbaa !28
  %49 = getelementptr inbounds nuw i8, ptr %48, i64 8
  store ptr %49, ptr %47, align 8, !tbaa !28
  %50 = tail call ptr @lj_str_new(ptr noundef nonnull %0, ptr noundef nonnull @.str, i64 noundef 5) #14
  %51 = ptrtoint ptr %50 to i64
  %52 = or i64 %51, -703687441776640
  store i64 %52, ptr %48, align 8, !tbaa !4
  tail call void @lj_vmevent_call(ptr noundef nonnull %0, i64 noundef %45) #14
  br label %53

53:                                               ; preds = %._crit_edge, %46, %44, %1
  %.0 = phi i32 [ 1, %1 ], [ 0, %44 ], [ 0, %46 ], [ 0, %._crit_edge ]
  ret i32 %.0
}